; Function Attrs: nounwind uwtable
define internal range(i32 -1, 1) i32 @H5C__trace_write_flush_cache_log_msg(ptr noundef readonly captures(none) %0, i32 noundef %1) #0 {
  %3 = load i8, ptr @H5C_init_g, align 1, !tbaa !3, !range !7, !noundef !8
  %4 = trunc nuw i8 %3 to i1
  %5 = load i8, ptr @H5_libterm_g, align 1, !range !7
  %6 = trunc nuw i8 %5 to i1
  %7 = xor i1 %6, true
  %8 = select i1 %4, i1 true, i1 %7
  br i1 %8, label %9, label %H5C__trace_write_log_message.exit.thread, !prof !9

9:                                                ; preds = %2
  %10 = getelementptr inbounds nuw i8, ptr %0, i64 8
  %11 = load ptr, ptr %10, align 8, !tbaa !15
  %12 = tail call i32 (ptr, i64, ptr, ...) @snprintf(ptr noundef nonnull dereferenceable(1) %11, i64 noundef 4096, ptr noundef nonnull @.str.13, i32 noundef %1) #8
  %13 = load i8, ptr @H5C_init_g, align 1, !tbaa !3, !range !7, !noundef !8
  %14 = trunc nuw i8 %13 to i1
  %15 = load i8, ptr @H5_libterm_g, align 1, !range !7
  %16 = trunc nuw i8 %15 to i1
  %17 = xor i1 %16, true
  %18 = select i1 %14, i1 true, i1 %17
  br i1 %18, label %19, label %H5C__trace_write_log_message.exit.thread, !prof !9

19:                                               ; preds = %9
  %20 = load ptr, ptr %10, align 8, !tbaa !15
  %21 = tail call i64 @strlen(ptr noundef nonnull dereferenceable(1) %20) #9
  %22 = trunc i64 %21 to i32
  %23 = load ptr, ptr %0, align 8, !tbaa !21
  %24 = tail call i32 (ptr, ptr, ...) @fprintf(ptr noundef %23, ptr noundef nonnull @.str.3, ptr noundef nonnull %20) #8
  %.not.i = icmp eq i32 %24, %22
  br i1 %.not.i, label %25, label %27

25:                                               ; preds = %19
  %26 = load ptr, ptr %10, align 8, !tbaa !15
  tail call void @llvm.memset.p0.i64(ptr align 1 %26, i8 0, i64 %21, i1 false)
  br label %H5C__trace_write_log_message.exit.thread

27:                                               ; preds = %19
  %28 = load i64, ptr @H5E_CACHE_g, align 8, !tbaa !19
  %29 = load i64, ptr @H5E_LOGGING_g, align 8, !tbaa !19
  %30 = tail call i32 (ptr, ptr, i32, i64, i64, ptr, ...) @H5E_printf_stack(ptr noundef nonnull @.str, ptr noundef nonnull @__func__.H5C__trace_write_log_message, i32 noundef 168, i64 noundef %28, i64 noundef %29, ptr noundef nonnull @.str.12) #8
  %31 = load i64, ptr @H5E_CACHE_g, align 8, !tbaa !19
  %32 = load i64, ptr @H5E_LOGGING_g, align 8, !tbaa !19
  %33 = tail call i32 (ptr, ptr, i32, i64, i64, ptr, ...) @H5E_printf_stack(ptr noundef nonnull @.str, ptr noundef nonnull @__func__.H5C__trace_write_flush_cache_log_msg, i32 noundef 369, i64 noundef %31, i64 noundef %32, ptr noundef nonnull @.str.11) #8
  br label %H5C__trace_write_log_message.exit.thread

H5C__trace_write_log_message.exit.thread:         ; preds = %9, %25, %27, %2
  %.0 = phi i32 [ -1, %27 ], [ 0, %2 ], [ 0, %25 ], [ 0, %9 ]
  ret i32 %.0
}